; ModuleID = '50/1718.c'
source_filename = "50/1718.c"
target datalayout = "e-m:e-p270:32:32-p271:32:32-p272:64:64-i64:64-f80:128-n8:16:32:64-S128"
target triple = "x86_64-pc-linux-gnu"

@.str = private unnamed_addr constant [3 x i8] c"%d\00", align 1
@__const.main.month = private unnamed_addr constant [13 x i32] [i32 0, i32 31, i32 28, i32 31, i32 30, i32 31, i32 30, i32 31, i32 31, i32 30, i32 31, i32 30, i32 31], align 16
@.str.1 = private unnamed_addr constant [4 x i8] c"%d\0A\00", align 1

; Function Attrs: noinline nounwind uwtable
define dso_local i32 @main() #0 {
  %1 = alloca i32, align 4
  %2 = alloca i32, align 4
  %3 = alloca [13 x i32], align 16
  %4 = alloca i32, align 4
  %5 = alloca i32, align 4
  %6 = alloca i32, align 4
  %7 = alloca i32, align 4
  store i32 0, i32* %1, align 4
  %8 = call i32 (i8*, ...) @__isoc99_scanf(i8* getelementptr inbounds ([3 x i8], [3 x i8]* @.str, i64 0, i64 0), i32* %2)
  %9 = bitcast [13 x i32]* %3 to i8*
  call void @llvm.memcpy.p0i8.p0i8.i64(i8* align 16 %9, i8* align 16 bitcast ([13 x i32]* @__const.main.month to i8*), i64 52, i1 false)
  store i32 1, i32* %4, align 4
  br label %10

10:                                               ; preds = %54, %0
  %11 = load i32, i32* %4, align 4
  %12 = icmp sle i32 %11, 12
  br i1 %12, label %13, label %57

13:                                               ; preds = %10
  store i32 0, i32* %7, align 4
  %14 = load i32, i32* %4, align 4
  %15 = sub nsw i32 %14, 1
  store i32 %15, i32* %5, align 4
  br label %16

16:                                               ; preds = %26, %13
  %17 = load i32, i32* %5, align 4
  %18 = icmp sge i32 %17, 0
  br i1 %18, label %19, label %29

19:                                               ; preds = %16
  %20 = load i32, i32* %7, align 4
  %21 = load i32, i32* %5, align 4
  %22 = sext i32 %21 to i64
  %23 = getelementptr inbounds [13 x i32], [13 x i32]* %3, i64 0, i64 %22
  %24 = load i32, i32* %23, align 4
  %25 = add nsw i32 %20, %24
  store i32 %25, i32* %7, align 4
  br label %26

26:                                               ; preds = %19
  %27 = load i32, i32* %5, align 4
  %28 = add nsw i32 %27, -1
  store i32 %28, i32* %5, align 4
  br label %16

29:                                               ; preds = %16
  %30 = load i32, i32* %7, align 4
  %31 = add nsw i32 %30, 13
  store i32 %31, i32* %7, align 4
  %32 = load i32, i32* %2, align 4
  %33 = sub nsw i32 %32, 1
  %34 = load i32, i32* %7, align 4
  %35 = srem i32 %34, 7
  %36 = add nsw i32 %33, %35
  store i32 %36, i32* %6, align 4
  %37 = load i32, i32* %6, align 4
  %38 = icmp eq i32 %37, 0
  br i1 %38, label %39, label %40

39:                                               ; preds = %29
  store i32 7, i32* %6, align 4
  br label %47

40:                                               ; preds = %29
  %41 = load i32, i32* %6, align 4
  %42 = icmp sgt i32 %41, 7
  br i1 %42, label %43, label %46

43:                                               ; preds = %40
  %44 = load i32, i32* %6, align 4
  %45 = sub nsw i32 %44, 7
  store i32 %45, i32* %6, align 4
  br label %46

46:                                               ; preds = %43, %40
  br label %47

47:                                               ; preds = %46, %39
  %48 = load i32, i32* %6, align 4
  %49 = icmp eq i32 %48, 5
  br i1 %49, label %50, label %53

50:                                               ; preds = %47
  %51 = load i32, i32* %4, align 4
  %52 = call i32 (i8*, ...) @printf(i8* getelementptr inbounds ([4 x i8], [4 x i8]* @.str.1, i64 0, i64 0), i32 %51)
  br label %53

53:                                               ; preds = %50, %47
  br label %54

54:                                               ; preds = %53
  %55 = load i32, i32* %4, align 4
  %56 = add nsw i32 %55, 1
  store i32 %56, i32* %4, align 4
  br label %10

57:                                               ; preds = %10
  ret i32 0
}

declare dso_local i32 @__isoc99_scanf(i8*, ...) #1

; Function Attrs: argmemonly nounwind willreturn
declare void @llvm.memcpy.p0i8.p0i8.i64(i8* noalias nocapture writeonly, i8* noalias nocapture readonly, i64, i1 immarg) #2

declare dso_local i32 @printf(i8*, ...) #1


!llvm.module.flags = !{!0}
!llvm.ident = !{!1}

!0 = !{i32 1, !"wchar_size", i32 4}
!1 = !{!"clang version 10.0.0-4ubuntu1 "}
